target datalayout = "e-m:e-p270:32:32-p271:32:32-p272:64:64-i64:64-i128:128-f80:128-n8:16:32:64-S128"
target triple = "x86_64-pc-linux-gnu"

%"class.cv::Range" = type { i32, i32 }
%"class.cv::ParallelLoopBody" = type { ptr }
%"class.cv::Mat" = type { i32, i32, i32, i32, ptr, ptr, ptr, ptr, ptr, ptr, %"struct.cv::MatSize", %"struct.cv::MatStep" }
%"struct.cv::MatSize" = type { ptr }
%"struct.cv::MatStep" = type { ptr, [2 x i64] }
%"class.cv::ximgproc::FastGlobalSmootherFilterImpl" = type { %"class.cv::ximgproc::FastGlobalSmootherFilter", i32, i32, i32, float, float, float, i32, %"class.cv::Mat", %"class.cv::Mat", %"class.cv::Mat", %"class.cv::Mat" }
%"class.cv::ximgproc::FastGlobalSmootherFilter" = type { %"class.cv::Algorithm" }
%"class.cv::Algorithm" = type { ptr }
%"struct.cv::ximgproc::FastGlobalSmootherFilterImpl::HorizontalPass_ParBody" = type <{ %"class.cv::ParallelLoopBody", ptr, ptr, i32, i32, i32, [4 x i8] }>

@_ZN2cv8ximgproc28FastGlobalSmootherFilterImpl22HorizontalPass_ParBodyC1ERS1_RNS_3MatEii = hidden unnamed_addr alias void (ptr, ptr, ptr, i32, i32), ptr @_ZN2cv8ximgproc28FastGlobalSmootherFilterImpl22HorizontalPass_ParBodyC2ERS1_RNS_3MatEii

; Function Attrs: inlinehint mustprogress nounwind uwtable
define linkonce_odr hidden void @_ZN2cv5RangeC2Eii(ptr noundef nonnull align 4 dereferenceable(8) %0, i32 noundef %1, i32 noundef %2) unnamed_addr #8 comdat align 2 {
  %4 = alloca ptr, align 8
  %5 = alloca i32, align 4
  %6 = alloca i32, align 4
  store ptr %0, ptr %4, align 8, !tbaa !46
  store i32 %1, ptr %5, align 4, !tbaa !12
  store i32 %2, ptr %6, align 4, !tbaa !12
  %7 = load ptr, ptr %4, align 8
  %8 = getelementptr inbounds nuw %"class.cv::Range", ptr %7, i32 0, i32 0
  %9 = load i32, ptr %5, align 4, !tbaa !12
  store i32 %9, ptr %8, align 4, !tbaa !48
  %10 = getelementptr inbounds nuw %"class.cv::Range", ptr %7, i32 0, i32 1
  %11 = load i32, ptr %6, align 4, !tbaa !12
  store i32 %11, ptr %10, align 4, !tbaa !50
  ret void
}

; Function Attrs: mustprogress uwtable
define hidden void @_ZN2cv8ximgproc28FastGlobalSmootherFilterImpl14horizontalPassERNS_3MatE(ptr noundef nonnull align 8 dereferenceable(424) %0, ptr noundef nonnull align 8 dereferenceable(96) %1) #4 align 2 personality ptr @__gxx_personality_v0 {
  %3 = alloca ptr, align 8
  %4 = alloca ptr, align 8
  %5 = alloca %"class.cv::Range", align 4
  %6 = alloca %"struct.cv::ximgproc::FastGlobalSmootherFilterImpl::HorizontalPass_ParBody", align 8
  %7 = alloca ptr, align 8
  %8 = alloca i32, align 4
  store ptr %0, ptr %3, align 8, !tbaa !3
  store ptr %1, ptr %4, align 8, !tbaa !40
  %9 = load ptr, ptr %3, align 8
  call void @llvm.lifetime.start.p0(i64 8, ptr %5) #3
  %10 = getelementptr inbounds nuw %"class.cv::ximgproc::FastGlobalSmootherFilterImpl", ptr %9, i32 0, i32 3
  %11 = load i32, ptr %10, align 8, !tbaa !30
  call void @_ZN2cv5RangeC2Eii(ptr noundef nonnull align 4 dereferenceable(8) %5, i32 noundef 0, i32 noundef %11)
  call void @llvm.lifetime.start.p0(i64 40, ptr %6) #3
  %12 = load ptr, ptr %4, align 8, !tbaa !40
  %13 = getelementptr inbounds nuw %"class.cv::ximgproc::FastGlobalSmootherFilterImpl", ptr %9, i32 0, i32 3
  %14 = load i32, ptr %13, align 8, !tbaa !30
  %15 = getelementptr inbounds nuw %"class.cv::ximgproc::FastGlobalSmootherFilterImpl", ptr %9, i32 0, i32 2
  %16 = load i32, ptr %15, align 4, !tbaa !34
  call void @_ZN2cv8ximgproc28FastGlobalSmootherFilterImpl22HorizontalPass_ParBodyC1ERS1_RNS_3MatEii(ptr noundef nonnull align 8 dereferenceable(36) %6, ptr noundef nonnull align 8 dereferenceable(424) %9, ptr noundef nonnull align 8 dereferenceable(96) %12, i32 noundef %14, i32 noundef %16)
  invoke void @_ZN2cv13parallel_for_ERKNS_5RangeERKNS_16ParallelLoopBodyEd(ptr noundef nonnull align 4 dereferenceable(8) %5, ptr noundef nonnull align 8 dereferenceable(8) %6, double noundef -1.000000e+00)
          to label %17 unwind label %18

17:                                               ; preds = %2
  call void @_ZN2cv16ParallelLoopBodyD2Ev(ptr noundef nonnull align 8 dereferenceable(36) %6) #3
  call void @llvm.lifetime.end.p0(i64 40, ptr %6) #3
  call void @llvm.lifetime.end.p0(i64 8, ptr %5) #3
  ret void

18:                                               ; preds = %2
  %19 = landingpad { ptr, i32 }
          cleanup
  %20 = extractvalue { ptr, i32 } %19, 0
  store ptr %20, ptr %7, align 8
  %21 = extractvalue { ptr, i32 } %19, 1
  store i32 %21, ptr %8, align 4
  call void @_ZN2cv16ParallelLoopBodyD2Ev(ptr noundef nonnull align 8 dereferenceable(36) %6) #3
  call void @llvm.lifetime.end.p0(i64 40, ptr %6) #3
  call void @llvm.lifetime.end.p0(i64 8, ptr %5) #3
  br label %22

22:                                               ; preds = %18
  %23 = load ptr, ptr %7, align 8
  %24 = load i32, ptr %8, align 4
  %25 = insertvalue { ptr, i32 } poison, ptr %23, 0
  %26 = insertvalue { ptr, i32 } %25, i32 %24, 1
  resume { ptr, i32 } %26
}