; Function Attrs: mustprogress uwtable
define hidden void @_ZN2cv8ximgproc28FastGlobalSmootherFilterImpl14horizontalPassERNS_3MatE(ptr noundef nonnull align 8 dereferenceable(424) %0, ptr noundef nonnull align 8 dereferenceable(96) %1) local_unnamed_addr #3 align 2 personality ptr @__gxx_personality_v0 {
  %3 = alloca %"class.cv::Range", align 4
  %4 = alloca %"struct.cv::ximgproc::FastGlobalSmootherFilterImpl::HorizontalPass_ParBody", align 8
  call void @llvm.lifetime.start.p0(i64 8, ptr nonnull %3) #23
  %5 = getelementptr inbounds nuw i8, ptr %0, i64 16
  %6 = load i32, ptr %5, align 8, !tbaa !28
  store i32 0, ptr %3, align 4, !tbaa !30
  %7 = getelementptr inbounds nuw i8, ptr %3, i64 4
  store i32 %6, ptr %7, align 4, !tbaa !32
  call void @llvm.lifetime.start.p0(i64 40, ptr nonnull %4) #23
  %8 = getelementptr inbounds nuw i8, ptr %0, i64 12
  %9 = load i32, ptr %8, align 4, !tbaa !45
  store ptr getelementptr inbounds nuw inrange(-16, 24) (i8, ptr @_ZTVN2cv8ximgproc28FastGlobalSmootherFilterImpl22HorizontalPass_ParBodyE, i64 16), ptr %4, align 8, !tbaa !33
  %10 = getelementptr inbounds nuw i8, ptr %4, i64 8
  store ptr %0, ptr %10, align 8, !tbaa !95
  %11 = getelementptr inbounds nuw i8, ptr %4, i64 16
  store ptr %1, ptr %11, align 8, !tbaa !97
  %12 = getelementptr inbounds nuw i8, ptr %4, i64 24
  store i32 %6, ptr %12, align 8, !tbaa !98
  %13 = getelementptr inbounds nuw i8, ptr %4, i64 32
  store i32 %9, ptr %13, align 8, !tbaa !99
  %14 = sitofp i32 %9 to double
  %15 = sitofp i32 %6 to double
  %16 = fdiv double %14, %15
  %17 = tail call double @llvm.ceil.f64(double %16)
  %18 = fptosi double %17 to i32
  %19 = getelementptr inbounds nuw i8, ptr %4, i64 28
  store i32 %18, ptr %19, align 4, !tbaa !100
  invoke void @_ZN2cv13parallel_for_ERKNS_5RangeERKNS_16ParallelLoopBodyEd(ptr noundef nonnull align 4 dereferenceable(8) %3, ptr noundef nonnull align 8 dereferenceable(8) %4, double noundef -1.000000e+00)
          to label %20 unwind label %21

20:                                               ; preds = %2
  call void @_ZN2cv16ParallelLoopBodyD2Ev(ptr noundef nonnull align 8 dereferenceable(36) %4) #23
  call void @llvm.lifetime.end.p0(i64 40, ptr nonnull %4) #23
  call void @llvm.lifetime.end.p0(i64 8, ptr nonnull %3) #23
  ret void

21:                                               ; preds = %2
  %22 = landingpad { ptr, i32 }
          cleanup
  call void @_ZN2cv16ParallelLoopBodyD2Ev(ptr noundef nonnull align 8 dereferenceable(36) %4) #23
  call void @llvm.lifetime.end.p0(i64 40, ptr nonnull %4) #23
  call void @llvm.lifetime.end.p0(i64 8, ptr nonnull %3) #23
  resume { ptr, i32 } %22
}